target datalayout = "e-m:e-p270:32:32-p271:32:32-p272:64:64-i64:64-i128:128-f80:128-n8:16:32:64-S128"
target triple = "x86_64-pc-linux-gnu"

%"struct.Luau::Position" = type { i32, i32 }
%"struct.doctest::detail::ContextScopeBase.base" = type <{ %"struct.doctest::IContextScope", i8 }>
%"struct.doctest::IContextScope" = type { ptr }
%"struct.doctest::detail::ResultBuilder" = type { %"struct.doctest::AssertData" }
%"struct.doctest::AssertData" = type { ptr, i32, ptr, i32, ptr, i8, i8, %"class.doctest::String", %"class.doctest::String", i8, ptr, %"class.doctest::AssertData::StringContains" }
%"class.doctest::String" = type { %union.anon.436 }
%union.anon.436 = type { %"struct.doctest::String::view", [8 x i8] }
%"struct.doctest::String::view" = type { ptr, i32, i32 }
%"class.doctest::AssertData::StringContains" = type <{ %"class.doctest::Contains", i8, [7 x i8] }>
%"class.doctest::Contains" = type { %"class.doctest::String" }
%"struct.doctest::detail::Result" = type { i8, %"class.doctest::String" }
%"struct.doctest::detail::ExpressionDecomposer" = type { i32 }
%"class.std::optional.448" = type { %"struct.std::_Optional_base.449" }
%"struct.std::_Optional_base.449" = type { %"struct.std::_Optional_payload.451" }
%"struct.std::_Optional_payload.451" = type { %"struct.std::_Optional_payload_base.base.453", [7 x i8] }
%"struct.std::_Optional_payload_base.base.453" = type <{ %"union.std::_Optional_payload_base<const Luau::Type *>::_Storage", i8 }>
%"union.std::_Optional_payload_base<const Luau::Type *>::_Storage" = type { ptr }
%"struct.doctest::detail::Expression_lhs.529" = type <{ ptr, i32, [4 x i8] }>
%"class.doctest::detail::ContextScope.531" = type { %"struct.doctest::detail::ContextScopeBase.base", %class.anon.532 }
%class.anon.532 = type { ptr }
%"struct.std::_Optional_payload_base.452" = type <{ %"union.std::_Optional_payload_base<const Luau::Type *>::_Storage", i8, [7 x i8] }>

@.str = private unnamed_addr constant [1 x i8] zeroinitializer, align 1
@.str.61 = private unnamed_addr constant [105 x i8] c"generated/home/dtcxzyw/WorkSpace/Projects/compilers/llvm-opt-benchmark/bench/luau/luau/tests/Fixture.cpp\00", align 1
@.str.72 = private unnamed_addr constant [3 x i8] c"ty\00", align 1

; Function Attrs: mustprogress nounwind uwtable
define linkonce_odr dso_local noundef nonnull align 8 dereferenceable(8) ptr @_ZNSt22_Optional_payload_baseIPKN4Luau4TypeEE6_M_getEv(ptr noundef nonnull align 8 dereferenceable(9) %0) #1 comdat align 2 {
  %2 = alloca ptr, align 8
  store ptr %0, ptr %2, align 8
  %3 = load ptr, ptr %2, align 8
  %4 = getelementptr inbounds %"struct.std::_Optional_payload_base.452", ptr %3, i32 0, i32 0
  ret ptr %4
}

; Function Attrs: mustprogress nounwind uwtable
define linkonce_odr dso_local noundef nonnull align 8 dereferenceable(8) ptr @_ZNSt19_Optional_base_implIPKN4Luau4TypeESt14_Optional_baseIS3_Lb1ELb1EEE6_M_getEv(ptr noundef nonnull align 1 dereferenceable(1) %0) #1 comdat align 2 {
  %2 = alloca ptr, align 8
  store ptr %0, ptr %2, align 8
  %3 = load ptr, ptr %2, align 8
  br label %4

4:                                                ; preds = %1
  br label %5

5:                                                ; preds = %4
  br label %6

6:                                                ; preds = %5
  %7 = getelementptr inbounds %"struct.std::_Optional_base.449", ptr %3, i32 0, i32 0
  %8 = call noundef nonnull align 8 dereferenceable(8) ptr @_ZNSt22_Optional_payload_baseIPKN4Luau4TypeEE6_M_getEv(ptr noundef nonnull align 8 dereferenceable(9) %7) #2
  ret ptr %8
}

; Function Attrs: mustprogress nounwind uwtable
define linkonce_odr dso_local void @_ZN7doctest6detail14Expression_lhsIRSt8optionalIPKN4Luau4TypeEEEC2ES8_NS_10assertType4EnumE(ptr noundef nonnull align 8 dereferenceable(12) %0, ptr noundef nonnull align 8 dereferenceable(16) %1, i32 noundef %2) unnamed_addr #1 comdat align 2 {
  %4 = alloca ptr, align 8
  %5 = alloca ptr, align 8
  %6 = alloca i32, align 4
  store ptr %0, ptr %4, align 8
  store ptr %1, ptr %5, align 8
  store i32 %2, ptr %6, align 4
  %7 = load ptr, ptr %4, align 8
  %8 = getelementptr inbounds %"struct.doctest::detail::Expression_lhs.529", ptr %7, i32 0, i32 0
  %9 = load ptr, ptr %5, align 8
  store ptr %9, ptr %8, align 8
  %10 = getelementptr inbounds %"struct.doctest::detail::Expression_lhs.529", ptr %7, i32 0, i32 1
  %11 = load i32, ptr %6, align 4
  store i32 %11, ptr %10, align 8
  ret void
}

; Function Attrs: mustprogress uwtable
define internal void @"_ZN7doctest6detail12ContextScopeIZN4Luau7Fixture21requireTypeAtPositionENS2_8PositionEE3$_0EC2ERKS5_"(ptr noundef nonnull align 8 dereferenceable(24) %0, ptr noundef nonnull align 8 dereferenceable(8) %1) unnamed_addr #6 align 2 {
  %3 = alloca ptr, align 8
  %4 = alloca ptr, align 8
  store ptr %0, ptr %3, align 8
  store ptr %1, ptr %4, align 8
  %5 = load ptr, ptr %3, align 8
  call void @_ZN7doctest6detail16ContextScopeBaseC2Ev(ptr noundef nonnull align 8 dereferenceable(9) %5)
  store ptr getelementptr inbounds inrange(-16, 24) ({ [5 x ptr] }, ptr @"_ZTVN7doctest6detail12ContextScopeIZN4Luau7Fixture21requireTypeAtPositionENS2_8PositionEE3$_0EE", i32 0, i32 0, i32 2), ptr %5, align 8
  %6 = getelementptr inbounds %"class.doctest::detail::ContextScope.531", ptr %5, i32 0, i32 1
  %7 = load ptr, ptr %4, align 8
  call void @llvm.memcpy.p0.p0.i64(ptr align 8 %6, ptr align 8 %7, i64 8, i1 false)
  ret void
}

; Function Attrs: mustprogress nounwind uwtable
define linkonce_odr dso_local noundef nonnull align 8 dereferenceable(8) ptr @_ZNRSt8optionalIPKN4Luau4TypeEEdeEv(ptr noundef nonnull align 8 dereferenceable(16) %0) #1 comdat align 2 {
  %2 = alloca ptr, align 8
  store ptr %0, ptr %2, align 8
  %3 = load ptr, ptr %2, align 8
  %4 = call noundef nonnull align 8 dereferenceable(8) ptr @_ZNSt19_Optional_base_implIPKN4Luau4TypeESt14_Optional_baseIS3_Lb1ELb1EEE6_M_getEv(ptr noundef nonnull align 1 dereferenceable(1) %3) #2
  ret ptr %4
}

; Function Attrs: mustprogress nounwind uwtable
define linkonce_odr dso_local void @_ZN7doctest6detail6ResultD2Ev(ptr noundef nonnull align 8 dereferenceable(32) %0) unnamed_addr #1 comdat align 2 {
  %2 = alloca ptr, align 8
  store ptr %0, ptr %2, align 8
  %3 = load ptr, ptr %2, align 8
  %4 = getelementptr inbounds %"struct.doctest::detail::Result", ptr %3, i32 0, i32 1
  call void @_ZN7doctest6StringD1Ev(ptr noundef nonnull align 8 dereferenceable(24) %4) #2
  ret void
}

; Function Attrs: mustprogress uwtable
define linkonce_odr dso_local { ptr, i32 } @_ZN7doctest6detail20ExpressionDecomposerlsIRSt8optionalIPKN4Luau4TypeEEEENS0_14Expression_lhsIT_EEOSB_(ptr noundef nonnull align 4 dereferenceable(4) %0, ptr noundef nonnull align 8 dereferenceable(16) %1) #6 comdat align 2 {
  %3 = alloca %"struct.doctest::detail::Expression_lhs.529", align 8
  %4 = alloca ptr, align 8
  %5 = alloca ptr, align 8
  store ptr %0, ptr %4, align 8
  store ptr %1, ptr %5, align 8
  %6 = load ptr, ptr %4, align 8
  %7 = load ptr, ptr %5, align 8
  %8 = getelementptr inbounds %"struct.doctest::detail::ExpressionDecomposer", ptr %6, i32 0, i32 0
  %9 = load i32, ptr %8, align 4
  call void @_ZN7doctest6detail14Expression_lhsIRSt8optionalIPKN4Luau4TypeEEEC2ES8_NS_10assertType4EnumE(ptr noundef nonnull align 8 dereferenceable(12) %3, ptr noundef nonnull align 8 dereferenceable(16) %7, i32 noundef %9)
  %10 = load { ptr, i32 }, ptr %3, align 8
  ret { ptr, i32 } %10
}

; Function Attrs: mustprogress uwtable
define internal void @"_ZN7doctest6detail16MakeContextScopeIZN4Luau7Fixture21requireTypeAtPositionENS2_8PositionEE3$_0EENS0_12ContextScopeIT_EERKS7_"(ptr dead_on_unwind noalias writable sret(%"class.doctest::detail::ContextScope.531") align 8 %0, ptr noundef nonnull align 8 dereferenceable(8) %1) #6 {
  %3 = alloca ptr, align 8
  %4 = alloca ptr, align 8
  store ptr %0, ptr %3, align 8
  store ptr %1, ptr %4, align 8
  %5 = load ptr, ptr %4, align 8
  call void @"_ZN7doctest6detail12ContextScopeIZN4Luau7Fixture21requireTypeAtPositionENS2_8PositionEE3$_0EC2ERKS5_"(ptr noundef nonnull align 8 dereferenceable(24) %0, ptr noundef nonnull align 8 dereferenceable(8) %5)
  ret void
}

; Function Attrs: mustprogress uwtable
define dso_local noundef ptr @_ZN4Luau7Fixture21requireTypeAtPositionENS_8PositionE(ptr noundef nonnull align 8 dereferenceable(2232) %0, i64 %1) #6 align 2 personality ptr @__gxx_personality_v0 {
  %3 = alloca %"struct.Luau::Position", align 4
  %4 = alloca ptr, align 8
  %5 = alloca %"class.std::optional.448", align 8
  %6 = alloca %"struct.Luau::Position", align 4
  %7 = alloca %"class.doctest::detail::ContextScope.531", align 8
  %8 = alloca %class.anon.532, align 8
  %9 = alloca %"struct.doctest::detail::ResultBuilder", align 8
  %10 = alloca %"class.doctest::String", align 8
  %11 = alloca ptr, align 8
  %12 = alloca i32, align 4
  %13 = alloca %"struct.doctest::detail::Result", align 8
  %14 = alloca %"struct.doctest::detail::Expression_lhs.529", align 8
  %15 = alloca %"struct.doctest::detail::ExpressionDecomposer", align 4
  store i64 %1, ptr %3, align 4
  store ptr %0, ptr %4, align 8
  %16 = load ptr, ptr %4, align 8
  call void @llvm.memcpy.p0.p0.i64(ptr align 4 %6, ptr align 4 %3, i64 8, i1 false)
  %17 = load i64, ptr %6, align 4
  %18 = call { ptr, i8 } @_ZN4Luau7Fixture18findTypeAtPositionENS_8PositionE(ptr noundef nonnull align 8 dereferenceable(2232) %16, i64 %17)
  %19 = getelementptr inbounds %"class.std::optional.448", ptr %5, i32 0, i32 0
  %20 = getelementptr inbounds %"struct.std::_Optional_base.449", ptr %19, i32 0, i32 0
  %21 = getelementptr inbounds { ptr, i8 }, ptr %20, i32 0, i32 0
  %22 = extractvalue { ptr, i8 } %18, 0
  store ptr %22, ptr %21, align 8
  %23 = getelementptr inbounds { ptr, i8 }, ptr %20, i32 0, i32 1
  %24 = extractvalue { ptr, i8 } %18, 1
  store i8 %24, ptr %23, align 8
  br label %25

25:                                               ; preds = %2
  %26 = getelementptr inbounds %class.anon.532, ptr %8, i32 0, i32 0
  store ptr %3, ptr %26, align 8
  call void @"_ZN7doctest6detail16MakeContextScopeIZN4Luau7Fixture21requireTypeAtPositionENS2_8PositionEE3$_0EENS0_12ContextScopeIT_EERKS7_"(ptr dead_on_unwind writable sret(%"class.doctest::detail::ContextScope.531") align 8 %7, ptr noundef nonnull align 8 dereferenceable(8) %8)
  invoke void @_ZN7doctest6StringC1EPKc(ptr noundef nonnull align 8 dereferenceable(24) %10, ptr noundef @.str)
          to label %27 unwind label %38

27:                                               ; preds = %25
  invoke void @_ZN7doctest6detail13ResultBuilderC1ENS_10assertType4EnumEPKciS5_S5_RKNS_6StringE(ptr noundef nonnull align 8 dereferenceable(144) %9, i32 noundef 12, ptr noundef @.str.61, i32 noundef 409, ptr noundef @.str.72, ptr noundef @.str, ptr noundef nonnull align 8 dereferenceable(24) %10)
          to label %28 unwind label %42

28:                                               ; preds = %27
  call void @_ZN7doctest6StringD1Ev(ptr noundef nonnull align 8 dereferenceable(24) %10) #2
  invoke void @_ZN7doctest6detail20ExpressionDecomposerC1ENS_10assertType4EnumE(ptr noundef nonnull align 4 dereferenceable(4) %15, i32 noundef 12)
          to label %29 unwind label %46

29:                                               ; preds = %28
  %30 = invoke { ptr, i32 } @_ZN7doctest6detail20ExpressionDecomposerlsIRSt8optionalIPKN4Luau4TypeEEEENS0_14Expression_lhsIT_EEOSB_(ptr noundef nonnull align 4 dereferenceable(4) %15, ptr noundef nonnull align 8 dereferenceable(16) %5)
          to label %31 unwind label %46

31:                                               ; preds = %29
  %32 = getelementptr inbounds { ptr, i32 }, ptr %14, i32 0, i32 0
  %33 = extractvalue { ptr, i32 } %30, 0
  store ptr %33, ptr %32, align 8
  %34 = getelementptr inbounds { ptr, i32 }, ptr %14, i32 0, i32 1
  %35 = extractvalue { ptr, i32 } %30, 1
  store i32 %35, ptr %34, align 8
  invoke void @_ZN7doctest6detail14Expression_lhsIRSt8optionalIPKN4Luau4TypeEEEcvNS0_6ResultEEv(ptr dead_on_unwind writable sret(%"struct.doctest::detail::Result") align 8 %13, ptr noundef nonnull align 8 dereferenceable(12) %14)
          to label %36 unwind label %46

36:                                               ; preds = %31
  invoke void @_ZN7doctest6detail13ResultBuilder9setResultERKNS0_6ResultE(ptr noundef nonnull align 8 dereferenceable(144) %9, ptr noundef nonnull align 8 dereferenceable(32) %13)
          to label %37 unwind label %50

37:                                               ; preds = %36
  call void @_ZN7doctest6detail6ResultD2Ev(ptr noundef nonnull align 8 dereferenceable(32) %13) #2
  br label %59

38:                                               ; preds = %25
  %39 = landingpad { ptr, i32 }
          cleanup
  %40 = extractvalue { ptr, i32 } %39, 0
  store ptr %40, ptr %11, align 8
  %41 = extractvalue { ptr, i32 } %39, 1
  store i32 %41, ptr %12, align 4
  br label %78

42:                                               ; preds = %27
  %43 = landingpad { ptr, i32 }
          cleanup
  %44 = extractvalue { ptr, i32 } %43, 0
  store ptr %44, ptr %11, align 8
  %45 = extractvalue { ptr, i32 } %43, 1
  store i32 %45, ptr %12, align 4
  call void @_ZN7doctest6StringD1Ev(ptr noundef nonnull align 8 dereferenceable(24) %10) #2
  br label %78

46:                                               ; preds = %31, %29, %28
  %47 = landingpad { ptr, i32 }
          catch ptr null
  %48 = extractvalue { ptr, i32 } %47, 0
  store ptr %48, ptr %11, align 8
  %49 = extractvalue { ptr, i32 } %47, 1
  store i32 %49, ptr %12, align 4
  br label %54

50:                                               ; preds = %36
  %51 = landingpad { ptr, i32 }
          catch ptr null
  %52 = extractvalue { ptr, i32 } %51, 0
  store ptr %52, ptr %11, align 8
  %53 = extractvalue { ptr, i32 } %51, 1
  store i32 %53, ptr %12, align 4
  call void @_ZN7doctest6detail6ResultD2Ev(ptr noundef nonnull align 8 dereferenceable(32) %13) #2
  br label %54

54:                                               ; preds = %50, %46
  %55 = load ptr, ptr %11, align 8
  %56 = call ptr @__cxa_begin_catch(ptr %55) #2
  invoke void @_ZN7doctest6detail13ResultBuilder18translateExceptionEv(ptr noundef nonnull align 8 dereferenceable(144) %9)
          to label %57 unwind label %63

57:                                               ; preds = %54
  invoke void @__cxa_end_catch()
          to label %58 unwind label %67

58:                                               ; preds = %57
  br label %59

59:                                               ; preds = %58, %37
  %60 = invoke noundef zeroext i1 @_ZN7doctest6detail13ResultBuilder3logEv(ptr noundef nonnull align 8 dereferenceable(144) %9)
          to label %61 unwind label %67

61:                                               ; preds = %59
  br i1 %60, label %62, label %72

62:                                               ; preds = %61
  call void asm sideeffect "int $$3\0A", "~{dirflag},~{fpsr},~{flags}"() #2, !srcloc !21
  br label %72

63:                                               ; preds = %54
  %64 = landingpad { ptr, i32 }
          cleanup
  %65 = extractvalue { ptr, i32 } %64, 0
  store ptr %65, ptr %11, align 8
  %66 = extractvalue { ptr, i32 } %64, 1
  store i32 %66, ptr %12, align 4
  invoke void @__cxa_end_catch()
          to label %71 unwind label %84

67:                                               ; preds = %72, %59, %57
  %68 = landingpad { ptr, i32 }
          cleanup
  %69 = extractvalue { ptr, i32 } %68, 0
  store ptr %69, ptr %11, align 8
  %70 = extractvalue { ptr, i32 } %68, 1
  store i32 %70, ptr %12, align 4
  br label %77

71:                                               ; preds = %63
  br label %77

72:                                               ; preds = %62, %61
  invoke void @_ZNK7doctest6detail13ResultBuilder5reactEv(ptr noundef nonnull align 8 dereferenceable(144) %9)
          to label %73 unwind label %67

73:                                               ; preds = %72
  call void @_ZN7doctest6detail13ResultBuilderD2Ev(ptr noundef nonnull align 8 dereferenceable(144) %9) #2
  call void @"_ZN7doctest6detail12ContextScopeIZN4Luau7Fixture21requireTypeAtPositionENS2_8PositionEE3$_0ED2Ev"(ptr noundef nonnull align 8 dereferenceable(24) %7) #2
  br label %74

74:                                               ; preds = %73
  %75 = call noundef nonnull align 8 dereferenceable(8) ptr @_ZNRSt8optionalIPKN4Luau4TypeEEdeEv(ptr noundef nonnull align 8 dereferenceable(16) %5) #2
  %76 = load ptr, ptr %75, align 8
  ret ptr %76

77:                                               ; preds = %71, %67
  call void @_ZN7doctest6detail13ResultBuilderD2Ev(ptr noundef nonnull align 8 dereferenceable(144) %9) #2
  br label %78

78:                                               ; preds = %77, %42, %38
  call void @"_ZN7doctest6detail12ContextScopeIZN4Luau7Fixture21requireTypeAtPositionENS2_8PositionEE3$_0ED2Ev"(ptr noundef nonnull align 8 dereferenceable(24) %7) #2
  br label %79

79:                                               ; preds = %78
  %80 = load ptr, ptr %11, align 8
  %81 = load i32, ptr %12, align 4
  %82 = insertvalue { ptr, i32 } poison, ptr %80, 0
  %83 = insertvalue { ptr, i32 } %82, i32 %81, 1
  resume { ptr, i32 } %83

84:                                               ; preds = %63
  %85 = landingpad { ptr, i32 }
          catch ptr null
  %86 = extractvalue { ptr, i32 } %85, 0
  call void @__clang_call_terminate(ptr %86) #15
  unreachable
}