; Function Attrs: mustprogress uwtable
define dso_local noundef ptr @_ZN4Luau7Fixture21requireTypeAtPositionENS_8PositionE(ptr noundef nonnull align 8 dereferenceable(2232) %0, i64 %1) local_unnamed_addr #6 align 2 personality ptr @__gxx_personality_v0 {
  %3 = alloca %"struct.Luau::Position", align 8
  %4 = alloca %"class.std::optional.448", align 8
  %5 = alloca %"class.doctest::detail::ContextScope.531", align 8
  %6 = alloca %"struct.doctest::detail::ResultBuilder", align 8
  %7 = alloca %"class.doctest::String", align 8
  %8 = alloca %"struct.doctest::detail::Result", align 8
  %9 = alloca %"struct.doctest::detail::Expression_lhs.529", align 8
  %10 = alloca %"struct.doctest::detail::ExpressionDecomposer", align 4
  store i64 %1, ptr %3, align 8
  %11 = tail call { ptr, i8 } @_ZN4Luau7Fixture18findTypeAtPositionENS_8PositionE(ptr noundef nonnull align 8 dereferenceable(2232) %0, i64 %1)
  %12 = extractvalue { ptr, i8 } %11, 0
  store ptr %12, ptr %4, align 8
  %13 = getelementptr inbounds nuw i8, ptr %4, i64 8
  %14 = extractvalue { ptr, i8 } %11, 1
  store i8 %14, ptr %13, align 8
  %15 = ptrtoint ptr %3 to i64
  call void @_ZN7doctest6detail16ContextScopeBaseC2Ev(ptr noundef nonnull align 8 dereferenceable(24) %5)
  store ptr getelementptr inbounds nuw inrange(-16, 24) (i8, ptr @"_ZTVN7doctest6detail12ContextScopeIZN4Luau7Fixture21requireTypeAtPositionENS2_8PositionEE3$_0EE", i64 16), ptr %5, align 8, !alias.scope !83
  %16 = getelementptr inbounds nuw i8, ptr %5, i64 16
  store i64 %15, ptr %16, align 8, !alias.scope !83
  invoke void @_ZN7doctest6StringC1EPKc(ptr noundef nonnull align 8 dereferenceable(24) %7, ptr noundef nonnull @.str)
          to label %17 unwind label %25

17:                                               ; preds = %2
  invoke void @_ZN7doctest6detail13ResultBuilderC1ENS_10assertType4EnumEPKciS5_S5_RKNS_6StringE(ptr noundef nonnull align 8 dereferenceable(144) %6, i32 noundef 12, ptr noundef nonnull @.str.61, i32 noundef 409, ptr noundef nonnull @.str.72, ptr noundef nonnull @.str, ptr noundef nonnull align 8 dereferenceable(24) %7)
          to label %18 unwind label %27

18:                                               ; preds = %17
  call void @_ZN7doctest6StringD1Ev(ptr noundef nonnull align 8 dereferenceable(24) %7) #27
  invoke void @_ZN7doctest6detail20ExpressionDecomposerC1ENS_10assertType4EnumE(ptr noundef nonnull align 4 dereferenceable(4) %10, i32 noundef 12)
          to label %19 unwind label %29

19:                                               ; preds = %18
  %20 = load i32, ptr %10, align 4
  store ptr %4, ptr %9, align 8
  %21 = getelementptr inbounds nuw i8, ptr %9, i64 8
  store i32 %20, ptr %21, align 8
  invoke void @_ZN7doctest6detail14Expression_lhsIRSt8optionalIPKN4Luau4TypeEEEcvNS0_6ResultEEv(ptr dead_on_unwind nonnull writable sret(%"struct.doctest::detail::Result") align 8 %8, ptr noundef nonnull align 8 dereferenceable(12) %9)
          to label %22 unwind label %29

22:                                               ; preds = %19
  invoke void @_ZN7doctest6detail13ResultBuilder9setResultERKNS0_6ResultE(ptr noundef nonnull align 8 dereferenceable(144) %6, ptr noundef nonnull align 8 dereferenceable(32) %8)
          to label %23 unwind label %31

23:                                               ; preds = %22
  %24 = getelementptr inbounds nuw i8, ptr %8, i64 8
  call void @_ZN7doctest6StringD1Ev(ptr noundef nonnull align 8 dereferenceable(24) %24) #27
  br label %37

25:                                               ; preds = %2
  %26 = landingpad { ptr, i32 }
          cleanup
  br label %59

27:                                               ; preds = %17
  %28 = landingpad { ptr, i32 }
          cleanup
  call void @_ZN7doctest6StringD1Ev(ptr noundef nonnull align 8 dereferenceable(24) %7) #27
  br label %59

29:                                               ; preds = %19, %18
  %30 = landingpad { ptr, i32 }
          catch ptr null
  br label %34

31:                                               ; preds = %22
  %32 = landingpad { ptr, i32 }
          catch ptr null
  %33 = getelementptr inbounds nuw i8, ptr %8, i64 8
  call void @_ZN7doctest6StringD1Ev(ptr noundef nonnull align 8 dereferenceable(24) %33) #27
  br label %34

34:                                               ; preds = %31, %29
  %.pn = phi { ptr, i32 } [ %32, %31 ], [ %30, %29 ]
  %.14 = extractvalue { ptr, i32 } %.pn, 0
  %35 = call ptr @__cxa_begin_catch(ptr %.14) #27
  invoke void @_ZN7doctest6detail13ResultBuilder18translateExceptionEv(ptr noundef nonnull align 8 dereferenceable(144) %6)
          to label %36 unwind label %41

36:                                               ; preds = %34
  invoke void @__cxa_end_catch()
          to label %37 unwind label %43

37:                                               ; preds = %36, %23
  %38 = invoke noundef zeroext i1 @_ZN7doctest6detail13ResultBuilder3logEv(ptr noundef nonnull align 8 dereferenceable(144) %6)
          to label %39 unwind label %43

39:                                               ; preds = %37
  br i1 %38, label %40, label %45

40:                                               ; preds = %39
  call void asm sideeffect "int $$3\0A", "~{dirflag},~{fpsr},~{flags}"() #27, !srcloc !86
  br label %45

41:                                               ; preds = %34
  %42 = landingpad { ptr, i32 }
          cleanup
  invoke void @__cxa_end_catch()
          to label %58 unwind label %60

43:                                               ; preds = %45, %37, %36
  %44 = landingpad { ptr, i32 }
          cleanup
  br label %58

45:                                               ; preds = %40, %39
  invoke void @_ZNK7doctest6detail13ResultBuilder5reactEv(ptr noundef nonnull align 8 dereferenceable(144) %6)
          to label %46 unwind label %43

46:                                               ; preds = %45
  %47 = getelementptr inbounds nuw i8, ptr %6, i64 112
  call void @_ZN7doctest6StringD1Ev(ptr noundef nonnull align 8 dereferenceable(25) %47) #27
  %48 = getelementptr inbounds nuw i8, ptr %6, i64 72
  call void @_ZN7doctest6StringD1Ev(ptr noundef nonnull align 8 dereferenceable(24) %48) #27
  %49 = getelementptr inbounds nuw i8, ptr %6, i64 48
  call void @_ZN7doctest6StringD1Ev(ptr noundef nonnull align 8 dereferenceable(24) %49) #27
  store ptr getelementptr inbounds nuw inrange(-16, 24) (i8, ptr @"_ZTVN7doctest6detail12ContextScopeIZN4Luau7Fixture21requireTypeAtPositionENS2_8PositionEE3$_0EE", i64 16), ptr %5, align 8
  %50 = getelementptr inbounds nuw i8, ptr %5, i64 8
  %51 = load i8, ptr %50, align 8
  %52 = trunc i8 %51 to i1
  br i1 %52, label %53, label %"_ZN7doctest6detail12ContextScopeIZN4Luau7Fixture21requireTypeAtPositionENS2_8PositionEE3$_0ED2Ev.exit"

53:                                               ; preds = %46
  invoke void @_ZN7doctest6detail16ContextScopeBase7destroyEv(ptr noundef nonnull align 8 dereferenceable(24) %5)
          to label %"_ZN7doctest6detail12ContextScopeIZN4Luau7Fixture21requireTypeAtPositionENS2_8PositionEE3$_0ED2Ev.exit" unwind label %54

54:                                               ; preds = %53
  %55 = landingpad { ptr, i32 }
          catch ptr null
  %56 = extractvalue { ptr, i32 } %55, 0
  call void @__clang_call_terminate(ptr %56) #25
  unreachable

"_ZN7doctest6detail12ContextScopeIZN4Luau7Fixture21requireTypeAtPositionENS2_8PositionEE3$_0ED2Ev.exit": ; preds = %46, %53
  call void @_ZN7doctest13IContextScopeD2Ev(ptr noundef nonnull align 8 dereferenceable(24) %5) #27
  %57 = load ptr, ptr %4, align 8
  ret ptr %57

58:                                               ; preds = %41, %43
  %.pn5 = phi { ptr, i32 } [ %44, %43 ], [ %42, %41 ]
  call void @_ZN7doctest6detail13ResultBuilderD2Ev(ptr noundef nonnull align 8 dereferenceable(144) %6) #27
  br label %59

59:                                               ; preds = %58, %27, %25
  %.pn5.pn = phi { ptr, i32 } [ %.pn5, %58 ], [ %28, %27 ], [ %26, %25 ]
  call void @"_ZN7doctest6detail12ContextScopeIZN4Luau7Fixture21requireTypeAtPositionENS2_8PositionEE3$_0ED2Ev"(ptr noundef nonnull align 8 dereferenceable(24) %5) #27
  resume { ptr, i32 } %.pn5.pn

60:                                               ; preds = %41
  %61 = landingpad { ptr, i32 }
          catch ptr null
  %62 = extractvalue { ptr, i32 } %61, 0
  call void @__clang_call_terminate(ptr %62) #25
  unreachable
}